; Function Attrs: mustprogress uwtable
define void @_ZNK6casadi5NormF10ad_forwardERKSt6vectorIS1_INS_2MXESaIS2_EESaIS4_EERS6_(ptr noundef nonnull align 8 dereferenceable(64) %0, ptr noundef nonnull readonly align 8 captures(none) dereferenceable(24) %1, ptr noundef nonnull readonly align 8 captures(none) dereferenceable(24) %2) unnamed_addr #3 align 2 personality ptr @__gxx_personality_v0 {
  %4 = alloca %"class.casadi::MX", align 8
  %5 = alloca %"class.casadi::MX", align 8
  %6 = alloca %"class.casadi::MX", align 8
  call void @llvm.lifetime.start.p0(i64 8, ptr nonnull %4) #22
  call void @_ZNK6casadi21GenericSharedInternalINS_12SharedObjectENS_20SharedObjectInternalEE16shared_from_thisINS_2MXEEEKT_v(ptr dead_on_unwind nonnull writable sret(%"class.casadi::MX") align 8 %4, ptr noundef nonnull align 8 dereferenceable(16) %0)
  %7 = getelementptr inbounds nuw i8, ptr %2, i64 8
  %8 = load ptr, ptr %7, align 8, !tbaa !42
  %9 = load ptr, ptr %2, align 8, !tbaa !45
  %.not = icmp eq ptr %8, %9
  br i1 %.not, label %._crit_edge, label %.lr.ph

.lr.ph:                                           ; preds = %3
  %10 = getelementptr inbounds nuw i8, ptr %0, i64 32
  %11 = getelementptr inbounds nuw i8, ptr %0, i64 40
  br label %12

._crit_edge:                                      ; preds = %_ZN6casadi2MXaSERKS0_.exit, %3
  call void @_ZN6casadi2MXD1Ev(ptr noundef nonnull align 8 dereferenceable(8) %4) #22
  call void @llvm.lifetime.end.p0(i64 8, ptr nonnull %4) #22
  ret void

12:                                               ; preds = %.lr.ph, %_ZN6casadi2MXaSERKS0_.exit
  %.01116 = phi i64 [ 0, %.lr.ph ], [ %29, %_ZN6casadi2MXaSERKS0_.exit ]
  call void @llvm.lifetime.start.p0(i64 8, ptr nonnull %5) #22
  call void @llvm.lifetime.start.p0(i64 8, ptr nonnull %6) #22
  %13 = load ptr, ptr %11, align 8, !tbaa !23
  %14 = load ptr, ptr %10, align 8, !tbaa !26
  %.not.i.i.i.not = icmp eq ptr %13, %14
  br i1 %.not.i.i.i.not, label %15, label %_ZNK6casadi6MXNode3depEx.exit

15:                                               ; preds = %12
  invoke void (ptr, ...) @_ZSt24__throw_out_of_range_fmtPKcz(ptr noundef nonnull @.str.7, i64 noundef 0, i64 noundef 0) #24
          to label %.noexc unwind label %.loopexit.split-lp

.noexc:                                           ; preds = %15
  unreachable

_ZNK6casadi6MXNode3depEx.exit:                    ; preds = %12
  %16 = invoke noundef ptr @_ZNK6casadi2MXptEv(ptr noundef nonnull align 8 dereferenceable(8) %14)
          to label %17 unwind label %.loopexit

17:                                               ; preds = %_ZNK6casadi6MXNode3depEx.exit
  %18 = load ptr, ptr %1, align 8, !tbaa !45
  %19 = getelementptr inbounds nuw %"class.std::vector", ptr %18, i64 %.01116
  %20 = load ptr, ptr %19, align 8, !tbaa !26
  %21 = load ptr, ptr %16, align 8, !tbaa !3
  %22 = getelementptr inbounds nuw i8, ptr %21, i64 832
  %23 = load ptr, ptr %22, align 8
  invoke void %23(ptr dead_on_unwind nonnull writable sret(%"class.casadi::MX") align 8 %6, ptr noundef nonnull align 8 dereferenceable(64) %16, ptr noundef nonnull align 8 dereferenceable(8) %20)
          to label %24 unwind label %.loopexit

24:                                               ; preds = %17
  invoke void @_ZN6casadi2MX6binaryExRKS0_S2_(ptr dead_on_unwind nonnull writable sret(%"class.casadi::MX") align 8 %5, i64 noundef 4, ptr noundef nonnull align 8 dereferenceable(8) %6, ptr noundef nonnull align 8 dereferenceable(8) %4)
          to label %_ZN6casadidvERKNS_2MXES2_.exit unwind label %37

_ZN6casadidvERKNS_2MXES2_.exit:                   ; preds = %24
  %25 = load ptr, ptr %2, align 8, !tbaa !45
  %26 = getelementptr inbounds nuw %"class.std::vector", ptr %25, i64 %.01116
  %27 = load ptr, ptr %26, align 8, !tbaa !26
  %28 = invoke noundef nonnull align 8 dereferenceable(8) ptr @_ZN6casadi13GenericSharedINS_12SharedObjectENS_20SharedObjectInternalEEaSERKS3_(ptr noundef nonnull align 8 dereferenceable(8) %27, ptr noundef nonnull align 8 dereferenceable(8) %5)
          to label %_ZN6casadi2MXaSERKS0_.exit unwind label %39

_ZN6casadi2MXaSERKS0_.exit:                       ; preds = %_ZN6casadidvERKNS_2MXES2_.exit
  call void @_ZN6casadi2MXD1Ev(ptr noundef nonnull align 8 dereferenceable(8) %5) #22
  call void @_ZN6casadi2MXD1Ev(ptr noundef nonnull align 8 dereferenceable(8) %6) #22
  call void @llvm.lifetime.end.p0(i64 8, ptr nonnull %6) #22
  call void @llvm.lifetime.end.p0(i64 8, ptr nonnull %5) #22
  %29 = add nuw nsw i64 %.01116, 1
  %30 = load ptr, ptr %7, align 8, !tbaa !42
  %31 = load ptr, ptr %2, align 8, !tbaa !45
  %32 = ptrtoint ptr %30 to i64
  %33 = ptrtoint ptr %31 to i64
  %34 = sub i64 %32, %33
  %35 = sdiv exact i64 %34, 24
  %36 = icmp ult i64 %29, %35
  br i1 %36, label %12, label %._crit_edge, !llvm.loop !46

.loopexit:                                        ; preds = %_ZNK6casadi6MXNode3depEx.exit, %17
  %lpad.loopexit = landingpad { ptr, i32 }
          cleanup
  br label %42

.loopexit.split-lp:                               ; preds = %15
  %lpad.loopexit.split-lp = landingpad { ptr, i32 }
          cleanup
  br label %42

37:                                               ; preds = %24
  %38 = landingpad { ptr, i32 }
          cleanup
  br label %41

39:                                               ; preds = %_ZN6casadidvERKNS_2MXES2_.exit
  %40 = landingpad { ptr, i32 }
          cleanup
  call void @_ZN6casadi2MXD1Ev(ptr noundef nonnull align 8 dereferenceable(8) %5) #22
  br label %41

41:                                               ; preds = %39, %37
  %.pn = phi { ptr, i32 } [ %40, %39 ], [ %38, %37 ]
  call void @_ZN6casadi2MXD1Ev(ptr noundef nonnull align 8 dereferenceable(8) %6) #22
  br label %42

42:                                               ; preds = %.loopexit, %.loopexit.split-lp, %41
  %.pn.pn = phi { ptr, i32 } [ %.pn, %41 ], [ %lpad.loopexit, %.loopexit ], [ %lpad.loopexit.split-lp, %.loopexit.split-lp ]
  call void @llvm.lifetime.end.p0(i64 8, ptr nonnull %6) #22
  call void @llvm.lifetime.end.p0(i64 8, ptr nonnull %5) #22
  call void @_ZN6casadi2MXD1Ev(ptr noundef nonnull align 8 dereferenceable(8) %4) #22
  call void @llvm.lifetime.end.p0(i64 8, ptr nonnull %4) #22
  resume { ptr, i32 } %.pn.pn
}